target datalayout = "e-m:e-p270:32:32-p271:32:32-p272:64:64-i64:64-i128:128-f80:128-n8:16:32:64-S128"
target triple = "x86_64-pc-linux-gnu"

%struct.Gli_Man_t_ = type { ptr, ptr, ptr, ptr, ptr, i32, i32, i32, i32, i32, ptr, ptr }
%struct.Vec_Int_t_ = type { i32, i32, ptr }
%struct.Gli_Obj_t_ = type { i32, i32, ptr, i32, %union.anon, %union.anon.0, [0 x i32] }
%union.anon = type { i32 }
%union.anon.0 = type { i32 }

; Function Attrs: inlinehint nounwind uwtable
define internal void @Vec_IntGrow(ptr noundef %0, i32 noundef %1) #3 {
  %3 = alloca ptr, align 8
  %4 = alloca i32, align 4
  store ptr %0, ptr %3, align 8, !tbaa !21
  store i32 %1, ptr %4, align 4, !tbaa !3
  %5 = load ptr, ptr %3, align 8, !tbaa !21
  %6 = getelementptr inbounds nuw %struct.Vec_Int_t_, ptr %5, i32 0, i32 0
  %7 = load i32, ptr %6, align 8, !tbaa !24
  %8 = load i32, ptr %4, align 4, !tbaa !3
  %9 = icmp sge i32 %7, %8
  br i1 %9, label %10, label %11

10:                                               ; preds = %2
  br label %36

11:                                               ; preds = %2
  %12 = load ptr, ptr %3, align 8, !tbaa !21
  %13 = getelementptr inbounds nuw %struct.Vec_Int_t_, ptr %12, i32 0, i32 2
  %14 = load ptr, ptr %13, align 8, !tbaa !25
  %15 = icmp ne ptr %14, null
  br i1 %15, label %16, label %24

16:                                               ; preds = %11
  %17 = load ptr, ptr %3, align 8, !tbaa !21
  %18 = getelementptr inbounds nuw %struct.Vec_Int_t_, ptr %17, i32 0, i32 2
  %19 = load ptr, ptr %18, align 8, !tbaa !25
  %20 = load i32, ptr %4, align 4, !tbaa !3
  %21 = sext i32 %20 to i64
  %22 = mul i64 4, %21
  %23 = call ptr @realloc(ptr noundef %19, i64 noundef %22) #14
  br label %29

24:                                               ; preds = %11
  %25 = load i32, ptr %4, align 4, !tbaa !3
  %26 = sext i32 %25 to i64
  %27 = mul i64 4, %26
  %28 = call noalias ptr @malloc(i64 noundef %27) #12
  br label %29

29:                                               ; preds = %24, %16
  %30 = phi ptr [ %23, %16 ], [ %28, %24 ]
  %31 = load ptr, ptr %3, align 8, !tbaa !21
  %32 = getelementptr inbounds nuw %struct.Vec_Int_t_, ptr %31, i32 0, i32 2
  store ptr %30, ptr %32, align 8, !tbaa !25
  %33 = load i32, ptr %4, align 4, !tbaa !3
  %34 = load ptr, ptr %3, align 8, !tbaa !21
  %35 = getelementptr inbounds nuw %struct.Vec_Int_t_, ptr %34, i32 0, i32 0
  store i32 %33, ptr %35, align 8, !tbaa !24
  br label %36

36:                                               ; preds = %29, %10
  ret void
}

; Function Attrs: inlinehint nounwind uwtable
define internal void @Vec_IntPush(ptr noundef %0, i32 noundef %1) #3 {
  %3 = alloca ptr, align 8
  %4 = alloca i32, align 4
  store ptr %0, ptr %3, align 8, !tbaa !21
  store i32 %1, ptr %4, align 4, !tbaa !3
  %5 = load ptr, ptr %3, align 8, !tbaa !21
  %6 = getelementptr inbounds nuw %struct.Vec_Int_t_, ptr %5, i32 0, i32 1
  %7 = load i32, ptr %6, align 4, !tbaa !22
  %8 = load ptr, ptr %3, align 8, !tbaa !21
  %9 = getelementptr inbounds nuw %struct.Vec_Int_t_, ptr %8, i32 0, i32 0
  %10 = load i32, ptr %9, align 8, !tbaa !24
  %11 = icmp eq i32 %7, %10
  br i1 %11, label %12, label %26

12:                                               ; preds = %2
  %13 = load ptr, ptr %3, align 8, !tbaa !21
  %14 = getelementptr inbounds nuw %struct.Vec_Int_t_, ptr %13, i32 0, i32 0
  %15 = load i32, ptr %14, align 8, !tbaa !24
  %16 = icmp slt i32 %15, 16
  br i1 %16, label %17, label %19

17:                                               ; preds = %12
  %18 = load ptr, ptr %3, align 8, !tbaa !21
  call void @Vec_IntGrow(ptr noundef %18, i32 noundef 16)
  br label %25

19:                                               ; preds = %12
  %20 = load ptr, ptr %3, align 8, !tbaa !21
  %21 = load ptr, ptr %3, align 8, !tbaa !21
  %22 = getelementptr inbounds nuw %struct.Vec_Int_t_, ptr %21, i32 0, i32 0
  %23 = load i32, ptr %22, align 8, !tbaa !24
  %24 = mul nsw i32 2, %23
  call void @Vec_IntGrow(ptr noundef %20, i32 noundef %24)
  br label %25

25:                                               ; preds = %19, %17
  br label %26

26:                                               ; preds = %25, %2
  %27 = load i32, ptr %4, align 4, !tbaa !3
  %28 = load ptr, ptr %3, align 8, !tbaa !21
  %29 = getelementptr inbounds nuw %struct.Vec_Int_t_, ptr %28, i32 0, i32 2
  %30 = load ptr, ptr %29, align 8, !tbaa !25
  %31 = load ptr, ptr %3, align 8, !tbaa !21
  %32 = getelementptr inbounds nuw %struct.Vec_Int_t_, ptr %31, i32 0, i32 1
  %33 = load i32, ptr %32, align 4, !tbaa !22
  %34 = add nsw i32 %33, 1
  store i32 %34, ptr %32, align 4, !tbaa !22
  %35 = sext i32 %33 to i64
  %36 = getelementptr inbounds i32, ptr %30, i64 %35
  store i32 %27, ptr %36, align 4, !tbaa !3
  ret void
}

; Function Attrs: inlinehint nounwind uwtable
define internal ptr @Gli_ManObj(ptr noundef %0, i32 noundef %1) #3 {
  %3 = alloca ptr, align 8
  %4 = alloca i32, align 4
  store ptr %0, ptr %3, align 8, !tbaa !7
  store i32 %1, ptr %4, align 4, !tbaa !3
  %5 = load ptr, ptr %3, align 8, !tbaa !7
  %6 = getelementptr inbounds nuw %struct.Gli_Man_t_, ptr %5, i32 0, i32 10
  %7 = load ptr, ptr %6, align 8, !tbaa !20
  %8 = load i32, ptr %4, align 4, !tbaa !3
  %9 = sext i32 %8 to i64
  %10 = getelementptr inbounds i32, ptr %7, i64 %9
  ret ptr %10
}

; Function Attrs: inlinehint nounwind uwtable
define internal i32 @Vec_IntEntry(ptr noundef %0, i32 noundef %1) #3 {
  %3 = alloca ptr, align 8
  %4 = alloca i32, align 4
  store ptr %0, ptr %3, align 8, !tbaa !21
  store i32 %1, ptr %4, align 4, !tbaa !3
  %5 = load ptr, ptr %3, align 8, !tbaa !21
  %6 = getelementptr inbounds nuw %struct.Vec_Int_t_, ptr %5, i32 0, i32 2
  %7 = load ptr, ptr %6, align 8, !tbaa !25
  %8 = load i32, ptr %4, align 4, !tbaa !3
  %9 = sext i32 %8 to i64
  %10 = getelementptr inbounds i32, ptr %7, i64 %9
  %11 = load i32, ptr %10, align 4, !tbaa !3
  ret i32 %11
}

; Function Attrs: inlinehint nounwind uwtable
define internal i32 @Vec_IntSize(ptr noundef %0) #3 {
  %2 = alloca ptr, align 8
  store ptr %0, ptr %2, align 8, !tbaa !21
  %3 = load ptr, ptr %2, align 8, !tbaa !21
  %4 = getelementptr inbounds nuw %struct.Vec_Int_t_, ptr %3, i32 0, i32 1
  %5 = load i32, ptr %4, align 4, !tbaa !22
  ret i32 %5
}

; Function Attrs: inlinehint nounwind uwtable
define internal void @Vec_IntClear(ptr noundef %0) #3 {
  %2 = alloca ptr, align 8
  store ptr %0, ptr %2, align 8, !tbaa !21
  %3 = load ptr, ptr %2, align 8, !tbaa !21
  %4 = getelementptr inbounds nuw %struct.Vec_Int_t_, ptr %3, i32 0, i32 1
  store i32 0, ptr %4, align 4, !tbaa !22
  ret void
}

; Function Attrs: nounwind uwtable
define void @Gli_ManSetPiFromSaved(ptr noundef %0, i32 noundef %1) #0 {
  %3 = alloca ptr, align 8
  %4 = alloca i32, align 4
  %5 = alloca ptr, align 8
  %6 = alloca i32, align 4
  store ptr %0, ptr %3, align 8, !tbaa !7
  store i32 %1, ptr %4, align 4, !tbaa !3
  call void @llvm.lifetime.start.p0(i64 8, ptr %5) #10
  call void @llvm.lifetime.start.p0(i64 4, ptr %6) #10
  %7 = load ptr, ptr %3, align 8, !tbaa !7
  %8 = getelementptr inbounds nuw %struct.Gli_Man_t_, ptr %7, i32 0, i32 2
  %9 = load ptr, ptr %8, align 8, !tbaa !16
  call void @Vec_IntClear(ptr noundef %9)
  store i32 0, ptr %6, align 4, !tbaa !3
  br label %10

10:                                               ; preds = %80, %2
  %11 = load i32, ptr %6, align 4, !tbaa !3
  %12 = load ptr, ptr %3, align 8, !tbaa !7
  %13 = getelementptr inbounds nuw %struct.Gli_Man_t_, ptr %12, i32 0, i32 0
  %14 = load ptr, ptr %13, align 8, !tbaa !14
  %15 = call i32 @Vec_IntSize(ptr noundef %14)
  %16 = icmp slt i32 %11, %15
  br i1 %16, label %17, label %26

17:                                               ; preds = %10
  %18 = load ptr, ptr %3, align 8, !tbaa !7
  %19 = load ptr, ptr %3, align 8, !tbaa !7
  %20 = getelementptr inbounds nuw %struct.Gli_Man_t_, ptr %19, i32 0, i32 0
  %21 = load ptr, ptr %20, align 8, !tbaa !14
  %22 = load i32, ptr %6, align 4, !tbaa !3
  %23 = call i32 @Vec_IntEntry(ptr noundef %21, i32 noundef %22)
  %24 = call ptr @Gli_ManObj(ptr noundef %18, i32 noundef %23)
  store ptr %24, ptr %5, align 8, !tbaa !27
  %25 = icmp ne ptr %24, null
  br label %26

26:                                               ; preds = %17, %10
  %27 = phi i1 [ false, %10 ], [ %25, %17 ]
  br i1 %27, label %28, label %83

28:                                               ; preds = %26
  %29 = load ptr, ptr %3, align 8, !tbaa !7
  %30 = getelementptr inbounds nuw %struct.Gli_Man_t_, ptr %29, i32 0, i32 11
  %31 = load ptr, ptr %30, align 8, !tbaa !26
  %32 = load i32, ptr %6, align 4, !tbaa !3
  %33 = sext i32 %32 to i64
  %34 = getelementptr inbounds i32, ptr %31, i64 %33
  %35 = load i32, ptr %34, align 4, !tbaa !3
  %36 = load ptr, ptr %5, align 8, !tbaa !27
  %37 = getelementptr inbounds nuw %struct.Gli_Obj_t_, ptr %36, i32 0, i32 3
  %38 = load i32, ptr %37, align 8, !tbaa !47
  %39 = xor i32 %35, %38
  %40 = load i32, ptr %4, align 4, !tbaa !3
  %41 = shl i32 1, %40
  %42 = and i32 %39, %41
  %43 = icmp ne i32 %42, 0
  br i1 %43, label %44, label %79

44:                                               ; preds = %28
  %45 = load ptr, ptr %3, align 8, !tbaa !7
  %46 = getelementptr inbounds nuw %struct.Gli_Man_t_, ptr %45, i32 0, i32 2
  %47 = load ptr, ptr %46, align 8, !tbaa !16
  %48 = load ptr, ptr %5, align 8, !tbaa !27
  %49 = getelementptr inbounds nuw %struct.Gli_Obj_t_, ptr %48, i32 0, i32 1
  %50 = load i32, ptr %49, align 4, !tbaa !29
  call void @Vec_IntPush(ptr noundef %47, i32 noundef %50)
  %51 = load ptr, ptr %5, align 8, !tbaa !27
  %52 = load i32, ptr %51, align 8
  %53 = lshr i32 %52, 1
  %54 = and i32 %53, 1
  %55 = xor i32 %54, 1
  %56 = load i32, ptr %51, align 8
  %57 = and i32 %55, 1
  %58 = shl i32 %57, 1
  %59 = and i32 %56, -3
  %60 = or i32 %59, %58
  store i32 %60, ptr %51, align 8
  %61 = load ptr, ptr %5, align 8, !tbaa !27
  %62 = load i32, ptr %61, align 8
  %63 = lshr i32 %62, 2
  %64 = and i32 %63, 1
  %65 = xor i32 %64, 1
  %66 = load i32, ptr %61, align 8
  %67 = and i32 %65, 1
  %68 = shl i32 %67, 2
  %69 = and i32 %66, -5
  %70 = or i32 %69, %68
  store i32 %70, ptr %61, align 8
  %71 = load ptr, ptr %5, align 8, !tbaa !27
  %72 = getelementptr inbounds nuw %struct.Gli_Obj_t_, ptr %71, i32 0, i32 4
  %73 = load i32, ptr %72, align 4, !tbaa !36
  %74 = add nsw i32 %73, 1
  store i32 %74, ptr %72, align 4, !tbaa !36
  %75 = load ptr, ptr %5, align 8, !tbaa !27
  %76 = getelementptr inbounds nuw %struct.Gli_Obj_t_, ptr %75, i32 0, i32 5
  %77 = load i32, ptr %76, align 8, !tbaa !36
  %78 = add nsw i32 %77, 1
  store i32 %78, ptr %76, align 8, !tbaa !36
  br label %79

79:                                               ; preds = %44, %28
  br label %80

80:                                               ; preds = %79
  %81 = load i32, ptr %6, align 4, !tbaa !3
  %82 = add nsw i32 %81, 1
  store i32 %82, ptr %6, align 4, !tbaa !3
  br label %10, !llvm.loop !48

83:                                               ; preds = %26
  call void @llvm.lifetime.end.p0(i64 4, ptr %6) #10
  call void @llvm.lifetime.end.p0(i64 8, ptr %5) #10
  ret void
}