; Function Attrs: nounwind uwtable
define void @Gli_ManSetPiFromSaved(ptr noundef readonly captures(none) %0, i32 noundef %1) local_unnamed_addr #11 {
  %3 = getelementptr inbounds nuw i8, ptr %0, i64 16
  %4 = load ptr, ptr %3, align 8, !tbaa !17
  %5 = getelementptr inbounds nuw i8, ptr %4, i64 4
  store i32 0, ptr %5, align 4, !tbaa !11
  %6 = load ptr, ptr %0, align 8, !tbaa !15
  %7 = getelementptr i8, ptr %6, i64 4
  %.val1820 = load i32, ptr %7, align 4, !tbaa !11
  %8 = icmp sgt i32 %.val1820, 0
  br i1 %8, label %.lr.ph, label %.critedge

.lr.ph:                                           ; preds = %2
  %9 = getelementptr i8, ptr %0, i64 64
  %10 = getelementptr inbounds nuw i8, ptr %0, i64 72
  %11 = shl nuw i32 1, %1
  br label %12

12:                                               ; preds = %.lr.ph, %70
  %13 = phi ptr [ %6, %.lr.ph ], [ %71, %70 ]
  %indvars.iv = phi i64 [ 0, %.lr.ph ], [ %indvars.iv.next, %70 ]
  %14 = getelementptr i8, ptr %13, i64 8
  %.val19 = load ptr, ptr %14, align 8, !tbaa !14
  %15 = getelementptr inbounds nuw i32, ptr %.val19, i64 %indvars.iv
  %16 = load i32, ptr %15, align 4, !tbaa !26
  %.val = load ptr, ptr %9, align 8, !tbaa !21
  %17 = sext i32 %16 to i64
  %18 = getelementptr inbounds i32, ptr %.val, i64 %17
  %.not = icmp eq ptr %.val, null
  br i1 %.not, label %.critedge, label %19

19:                                               ; preds = %12
  %20 = load ptr, ptr %10, align 8, !tbaa !22
  %21 = getelementptr inbounds nuw i32, ptr %20, i64 %indvars.iv
  %22 = load i32, ptr %21, align 4, !tbaa !26
  %23 = getelementptr inbounds nuw i8, ptr %18, i64 16
  %24 = load i32, ptr %23, align 8, !tbaa !39
  %25 = xor i32 %24, %22
  %26 = and i32 %25, %11
  %.not17 = icmp eq i32 %26, 0
  br i1 %.not17, label %70, label %27

27:                                               ; preds = %19
  %28 = load ptr, ptr %3, align 8, !tbaa !17
  %29 = getelementptr inbounds nuw i8, ptr %18, i64 4
  %30 = load i32, ptr %29, align 4, !tbaa !23
  %31 = getelementptr inbounds nuw i8, ptr %28, i64 4
  %32 = load i32, ptr %31, align 4, !tbaa !11
  %33 = load i32, ptr %28, align 8, !tbaa !13
  %34 = icmp eq i32 %32, %33
  br i1 %34, label %35, label %.Vec_IntGrow.exit10_crit_edge.i

.Vec_IntGrow.exit10_crit_edge.i:                  ; preds = %27
  %.phi.trans.insert.i = getelementptr inbounds nuw i8, ptr %28, i64 8
  %.pre.i = load ptr, ptr %.phi.trans.insert.i, align 8, !tbaa !14
  br label %Vec_IntPush.exit

35:                                               ; preds = %27
  %36 = icmp slt i32 %32, 16
  br i1 %36, label %37, label %45

37:                                               ; preds = %35
  %38 = getelementptr inbounds nuw i8, ptr %28, i64 8
  %39 = load ptr, ptr %38, align 8, !tbaa !14
  %.not9.i.i = icmp eq ptr %39, null
  br i1 %.not9.i.i, label %42, label %40

40:                                               ; preds = %37
  %41 = tail call dereferenceable_or_null(64) ptr @realloc(ptr noundef nonnull %39, i64 noundef 64) #25
  br label %Vec_IntGrow.exit.i

42:                                               ; preds = %37
  %43 = tail call noalias dereferenceable_or_null(64) ptr @malloc(i64 noundef 64) #23
  br label %Vec_IntGrow.exit.i

Vec_IntGrow.exit.i:                               ; preds = %42, %40
  %44 = phi ptr [ %41, %40 ], [ %43, %42 ]
  store ptr %44, ptr %38, align 8, !tbaa !14
  store i32 16, ptr %28, align 8, !tbaa !13
  br label %Vec_IntPush.exit

45:                                               ; preds = %35
  %46 = shl nuw nsw i32 %32, 1
  %47 = getelementptr inbounds nuw i8, ptr %28, i64 8
  %48 = load ptr, ptr %47, align 8, !tbaa !14
  %.not9.i9.i = icmp eq ptr %48, null
  %49 = zext nneg i32 %46 to i64
  %50 = shl nuw nsw i64 %49, 2
  br i1 %.not9.i9.i, label %53, label %51

51:                                               ; preds = %45
  %52 = tail call ptr @realloc(ptr noundef nonnull %48, i64 noundef %50) #25
  br label %55

53:                                               ; preds = %45
  %54 = tail call noalias ptr @malloc(i64 noundef %50) #23
  br label %55

55:                                               ; preds = %53, %51
  %56 = phi ptr [ %52, %51 ], [ %54, %53 ]
  store ptr %56, ptr %47, align 8, !tbaa !14
  store i32 %46, ptr %28, align 8, !tbaa !13
  br label %Vec_IntPush.exit

Vec_IntPush.exit:                                 ; preds = %.Vec_IntGrow.exit10_crit_edge.i, %Vec_IntGrow.exit.i, %55
  %57 = phi ptr [ %.pre.i, %.Vec_IntGrow.exit10_crit_edge.i ], [ %56, %55 ], [ %44, %Vec_IntGrow.exit.i ]
  %58 = load i32, ptr %31, align 4, !tbaa !11
  %59 = add nsw i32 %58, 1
  store i32 %59, ptr %31, align 4, !tbaa !11
  %60 = sext i32 %58 to i64
  %61 = getelementptr inbounds i32, ptr %57, i64 %60
  store i32 %30, ptr %61, align 4, !tbaa !26
  %62 = load i32, ptr %18, align 8
  %63 = xor i32 %62, 6
  store i32 %63, ptr %18, align 8
  %64 = getelementptr inbounds nuw i8, ptr %18, i64 20
  %65 = load i32, ptr %64, align 4, !tbaa !31
  %66 = add nsw i32 %65, 1
  store i32 %66, ptr %64, align 4, !tbaa !31
  %67 = getelementptr inbounds nuw i8, ptr %18, i64 24
  %68 = load i32, ptr %67, align 8, !tbaa !31
  %69 = add nsw i32 %68, 1
  store i32 %69, ptr %67, align 8, !tbaa !31
  %.pre = load ptr, ptr %0, align 8, !tbaa !15
  br label %70

70:                                               ; preds = %19, %Vec_IntPush.exit
  %71 = phi ptr [ %13, %19 ], [ %.pre, %Vec_IntPush.exit ]
  %indvars.iv.next = add nuw nsw i64 %indvars.iv, 1
  %72 = getelementptr i8, ptr %71, i64 4
  %.val18 = load i32, ptr %72, align 4, !tbaa !11
  %73 = sext i32 %.val18 to i64
  %74 = icmp slt i64 %indvars.iv.next, %73
  br i1 %74, label %12, label %.critedge, !llvm.loop !40

.critedge:                                        ; preds = %12, %70, %2
  ret void
}